; Function Attrs: mustprogress uwtable
define noundef nonnull ptr @_ZN7rocksdb4test22RandomCompactionFilterEPNS_6RandomE(ptr noundef captures(none) %0) local_unnamed_addr #7 personality ptr @__gxx_personality_v0 {
  %2 = alloca %"class.std::__cxx11::basic_string", align 8
  %3 = tail call noalias noundef nonnull dereferenceable(64) ptr @_Znwm(i64 noundef 64) #37
  call void @llvm.lifetime.start.p0(i64 32, ptr nonnull %2) #34
  invoke void @_ZN7rocksdb4test10RandomNameB5cxx11EPNS_6RandomEm(ptr dead_on_unwind nonnull writable sret(%"class.std::__cxx11::basic_string") align 8 %2, ptr noundef %0, i64 noundef 10)
          to label %4 unwind label %14

4:                                                ; preds = %1
  invoke void @_ZN7rocksdb4test25ChanglingCompactionFilterC2ERKNSt7__cxx1112basic_stringIcSt11char_traitsIcESaIcEEE(ptr noundef nonnull align 8 dereferenceable(64) %3, ptr noundef nonnull align 8 dereferenceable(32) %2)
          to label %5 unwind label %16

5:                                                ; preds = %4
  %6 = load ptr, ptr %2, align 8, !tbaa !11
  %7 = getelementptr inbounds nuw i8, ptr %2, i64 16
  %8 = icmp eq ptr %6, %7
  br i1 %8, label %_ZNKSt7__cxx1112basic_stringIcSt11char_traitsIcESaIcEE11_M_is_localEv.exit.thread.i.i, label %_ZNKSt7__cxx1112basic_stringIcSt11char_traitsIcESaIcEE11_M_is_localEv.exit.i.i

_ZNKSt7__cxx1112basic_stringIcSt11char_traitsIcESaIcEE11_M_is_localEv.exit.thread.i.i: ; preds = %5
  %9 = getelementptr inbounds nuw i8, ptr %2, i64 8
  %10 = load i64, ptr %9, align 8, !tbaa !16
  %11 = icmp ult i64 %10, 16
  call void @llvm.assume(i1 %11)
  br label %_ZNSt7__cxx1112basic_stringIcSt11char_traitsIcESaIcEED2Ev.exit

_ZNKSt7__cxx1112basic_stringIcSt11char_traitsIcESaIcEE11_M_is_localEv.exit.i.i: ; preds = %5
  %12 = load i64, ptr %7, align 8, !tbaa !17
  %13 = add i64 %12, 1
  call void @_ZdlPvm(ptr noundef %6, i64 noundef %13) #33
  br label %_ZNSt7__cxx1112basic_stringIcSt11char_traitsIcESaIcEED2Ev.exit

_ZNSt7__cxx1112basic_stringIcSt11char_traitsIcESaIcEED2Ev.exit: ; preds = %_ZNKSt7__cxx1112basic_stringIcSt11char_traitsIcESaIcEE11_M_is_localEv.exit.thread.i.i, %_ZNKSt7__cxx1112basic_stringIcSt11char_traitsIcESaIcEE11_M_is_localEv.exit.i.i
  call void @llvm.lifetime.end.p0(i64 32, ptr nonnull %2) #34
  ret ptr %3

14:                                               ; preds = %1
  %15 = landingpad { ptr, i32 }
          cleanup
  br label %_ZNSt7__cxx1112basic_stringIcSt11char_traitsIcESaIcEED2Ev.exit7

16:                                               ; preds = %4
  %17 = landingpad { ptr, i32 }
          cleanup
  %18 = load ptr, ptr %2, align 8, !tbaa !11
  %19 = getelementptr inbounds nuw i8, ptr %2, i64 16
  %20 = icmp eq ptr %18, %19
  br i1 %20, label %_ZNKSt7__cxx1112basic_stringIcSt11char_traitsIcESaIcEE11_M_is_localEv.exit.thread.i.i6, label %_ZNKSt7__cxx1112basic_stringIcSt11char_traitsIcESaIcEE11_M_is_localEv.exit.i.i5

_ZNKSt7__cxx1112basic_stringIcSt11char_traitsIcESaIcEE11_M_is_localEv.exit.thread.i.i6: ; preds = %16
  %21 = getelementptr inbounds nuw i8, ptr %2, i64 8
  %22 = load i64, ptr %21, align 8, !tbaa !16
  %23 = icmp ult i64 %22, 16
  call void @llvm.assume(i1 %23)
  br label %_ZNSt7__cxx1112basic_stringIcSt11char_traitsIcESaIcEED2Ev.exit7

_ZNKSt7__cxx1112basic_stringIcSt11char_traitsIcESaIcEE11_M_is_localEv.exit.i.i5: ; preds = %16
  %24 = load i64, ptr %19, align 8, !tbaa !17
  %25 = add i64 %24, 1
  call void @_ZdlPvm(ptr noundef %18, i64 noundef %25) #33
  br label %_ZNSt7__cxx1112basic_stringIcSt11char_traitsIcESaIcEED2Ev.exit7

_ZNSt7__cxx1112basic_stringIcSt11char_traitsIcESaIcEED2Ev.exit7: ; preds = %_ZNKSt7__cxx1112basic_stringIcSt11char_traitsIcESaIcEE11_M_is_localEv.exit.i.i5, %_ZNKSt7__cxx1112basic_stringIcSt11char_traitsIcESaIcEE11_M_is_localEv.exit.thread.i.i6, %14
  %.pn = phi { ptr, i32 } [ %15, %14 ], [ %17, %_ZNKSt7__cxx1112basic_stringIcSt11char_traitsIcESaIcEE11_M_is_localEv.exit.thread.i.i6 ], [ %17, %_ZNKSt7__cxx1112basic_stringIcSt11char_traitsIcESaIcEE11_M_is_localEv.exit.i.i5 ]
  call void @llvm.lifetime.end.p0(i64 32, ptr nonnull %2) #34
  call void @_ZdlPvm(ptr noundef nonnull %3, i64 noundef 64) #33
  resume { ptr, i32 } %.pn
}